target datalayout = "e-m:e-p270:32:32-p271:32:32-p272:64:64-i64:64-i128:128-f80:128-n8:16:32:64-S128"
target triple = "x86_64-pc-linux-gnu"

%struct.pollfd = type { i32, i16, i16 }
%struct.eio_obj = type { i32, ptr, ptr, i8 }
%struct.io_operations = type { ptr, ptr, ptr, ptr, ptr, ptr, ptr, i32 }
%struct.foreach_pollfd_t = type { ptr, ptr, ptr }

; Function Attrs: nounwind uwtable
define internal zeroext i1 @_is_readable(ptr noundef %0) #0 {
  %2 = alloca ptr, align 8
  store ptr %0, ptr %2, align 8
  %3 = load ptr, ptr %2, align 8
  %4 = getelementptr inbounds nuw %struct.eio_obj, ptr %3, i32 0, i32 2
  %5 = load ptr, ptr %4, align 8
  %6 = getelementptr inbounds nuw %struct.io_operations, ptr %5, i32 0, i32 0
  %7 = load ptr, ptr %6, align 8
  %8 = icmp ne ptr %7, null
  br i1 %8, label %9, label %17

9:                                                ; preds = %1
  %10 = load ptr, ptr %2, align 8
  %11 = getelementptr inbounds nuw %struct.eio_obj, ptr %10, i32 0, i32 2
  %12 = load ptr, ptr %11, align 8
  %13 = getelementptr inbounds nuw %struct.io_operations, ptr %12, i32 0, i32 0
  %14 = load ptr, ptr %13, align 8
  %15 = load ptr, ptr %2, align 8
  %16 = call zeroext i1 %14(ptr noundef %15)
  br label %17

17:                                               ; preds = %9, %1
  %18 = phi i1 [ false, %1 ], [ %16, %9 ]
  ret i1 %18
}

; Function Attrs: nounwind uwtable
define internal zeroext i1 @_is_writable(ptr noundef %0) #0 {
  %2 = alloca ptr, align 8
  store ptr %0, ptr %2, align 8
  %3 = load ptr, ptr %2, align 8
  %4 = getelementptr inbounds nuw %struct.eio_obj, ptr %3, i32 0, i32 2
  %5 = load ptr, ptr %4, align 8
  %6 = getelementptr inbounds nuw %struct.io_operations, ptr %5, i32 0, i32 1
  %7 = load ptr, ptr %6, align 8
  %8 = icmp ne ptr %7, null
  br i1 %8, label %9, label %17

9:                                                ; preds = %1
  %10 = load ptr, ptr %2, align 8
  %11 = getelementptr inbounds nuw %struct.eio_obj, ptr %10, i32 0, i32 2
  %12 = load ptr, ptr %11, align 8
  %13 = getelementptr inbounds nuw %struct.io_operations, ptr %12, i32 0, i32 1
  %14 = load ptr, ptr %13, align 8
  %15 = load ptr, ptr %2, align 8
  %16 = call zeroext i1 %14(ptr noundef %15)
  br label %17

17:                                               ; preds = %9, %1
  %18 = phi i1 [ false, %1 ], [ %16, %9 ]
  ret i1 %18
}

; Function Attrs: nounwind uwtable
define internal i32 @_foreach_helper_setup_pollfds(ptr noundef %0, ptr noundef %1) #0 {
  %3 = alloca ptr, align 8
  %4 = alloca ptr, align 8
  %5 = alloca ptr, align 8
  %6 = alloca ptr, align 8
  %7 = alloca ptr, align 8
  %8 = alloca ptr, align 8
  %9 = alloca i32, align 4
  %10 = alloca i8, align 1
  %11 = alloca i8, align 1
  store ptr %0, ptr %3, align 8
  store ptr %1, ptr %4, align 8
  call void @llvm.lifetime.start.p0(i64 8, ptr %5) #7
  %12 = load ptr, ptr %3, align 8
  store ptr %12, ptr %5, align 8
  call void @llvm.lifetime.start.p0(i64 8, ptr %6) #7
  %13 = load ptr, ptr %4, align 8
  store ptr %13, ptr %6, align 8
  call void @llvm.lifetime.start.p0(i64 8, ptr %7) #7
  %14 = load ptr, ptr %6, align 8
  %15 = getelementptr inbounds nuw %struct.foreach_pollfd_t, ptr %14, i32 0, i32 2
  %16 = load ptr, ptr %15, align 8
  store ptr %16, ptr %7, align 8
  call void @llvm.lifetime.start.p0(i64 8, ptr %8) #7
  %17 = load ptr, ptr %6, align 8
  %18 = getelementptr inbounds nuw %struct.foreach_pollfd_t, ptr %17, i32 0, i32 0
  %19 = load ptr, ptr %18, align 8
  store ptr %19, ptr %8, align 8
  call void @llvm.lifetime.start.p0(i64 4, ptr %9) #7
  %20 = load ptr, ptr %6, align 8
  %21 = getelementptr inbounds nuw %struct.foreach_pollfd_t, ptr %20, i32 0, i32 1
  %22 = load ptr, ptr %21, align 8
  %23 = load i32, ptr %22, align 4
  store i32 %23, ptr %9, align 4
  call void @llvm.lifetime.start.p0(i64 1, ptr %10) #7
  call void @llvm.lifetime.start.p0(i64 1, ptr %11) #7
  %24 = load ptr, ptr %5, align 8
  %25 = call zeroext i1 @_is_writable(ptr noundef %24)
  %26 = zext i1 %25 to i8
  store i8 %26, ptr %11, align 1
  %27 = load ptr, ptr %5, align 8
  %28 = call zeroext i1 @_is_readable(ptr noundef %27)
  %29 = zext i1 %28 to i8
  store i8 %29, ptr %10, align 1
  %30 = load i8, ptr %11, align 1, !range !10, !noundef !11
  %31 = trunc i8 %30 to i1
  br i1 %31, label %32, label %54

32:                                               ; preds = %2
  %33 = load i8, ptr %10, align 1, !range !10, !noundef !11
  %34 = trunc i8 %33 to i1
  br i1 %34, label %35, label %54

35:                                               ; preds = %32
  %36 = load ptr, ptr %5, align 8
  %37 = getelementptr inbounds nuw %struct.eio_obj, ptr %36, i32 0, i32 0
  %38 = load i32, ptr %37, align 8
  %39 = load ptr, ptr %7, align 8
  %40 = load i32, ptr %9, align 4
  %41 = zext i32 %40 to i64
  %42 = getelementptr inbounds nuw %struct.pollfd, ptr %39, i64 %41
  %43 = getelementptr inbounds nuw %struct.pollfd, ptr %42, i32 0, i32 0
  store i32 %38, ptr %43, align 4
  %44 = load ptr, ptr %7, align 8
  %45 = load i32, ptr %9, align 4
  %46 = zext i32 %45 to i64
  %47 = getelementptr inbounds nuw %struct.pollfd, ptr %44, i64 %46
  %48 = getelementptr inbounds nuw %struct.pollfd, ptr %47, i32 0, i32 1
  store i16 8213, ptr %48, align 4
  %49 = load ptr, ptr %5, align 8
  %50 = load ptr, ptr %8, align 8
  %51 = load i32, ptr %9, align 4
  %52 = zext i32 %51 to i64
  %53 = getelementptr inbounds nuw ptr, ptr %50, i64 %52
  store ptr %49, ptr %53, align 8
  br label %100

54:                                               ; preds = %32, %2
  %55 = load i8, ptr %10, align 1, !range !10, !noundef !11
  %56 = trunc i8 %55 to i1
  br i1 %56, label %57, label %76

57:                                               ; preds = %54
  %58 = load ptr, ptr %5, align 8
  %59 = getelementptr inbounds nuw %struct.eio_obj, ptr %58, i32 0, i32 0
  %60 = load i32, ptr %59, align 8
  %61 = load ptr, ptr %7, align 8
  %62 = load i32, ptr %9, align 4
  %63 = zext i32 %62 to i64
  %64 = getelementptr inbounds nuw %struct.pollfd, ptr %61, i64 %63
  %65 = getelementptr inbounds nuw %struct.pollfd, ptr %64, i32 0, i32 0
  store i32 %60, ptr %65, align 4
  %66 = load ptr, ptr %7, align 8
  %67 = load i32, ptr %9, align 4
  %68 = zext i32 %67 to i64
  %69 = getelementptr inbounds nuw %struct.pollfd, ptr %66, i64 %68
  %70 = getelementptr inbounds nuw %struct.pollfd, ptr %69, i32 0, i32 1
  store i16 8193, ptr %70, align 4
  %71 = load ptr, ptr %5, align 8
  %72 = load ptr, ptr %8, align 8
  %73 = load i32, ptr %9, align 4
  %74 = zext i32 %73 to i64
  %75 = getelementptr inbounds nuw ptr, ptr %72, i64 %74
  store ptr %71, ptr %75, align 8
  br label %99

76:                                               ; preds = %54
  %77 = load i8, ptr %11, align 1, !range !10, !noundef !11
  %78 = trunc i8 %77 to i1
  br i1 %78, label %79, label %98

79:                                               ; preds = %76
  %80 = load ptr, ptr %5, align 8
  %81 = getelementptr inbounds nuw %struct.eio_obj, ptr %80, i32 0, i32 0
  %82 = load i32, ptr %81, align 8
  %83 = load ptr, ptr %7, align 8
  %84 = load i32, ptr %9, align 4
  %85 = zext i32 %84 to i64
  %86 = getelementptr inbounds nuw %struct.pollfd, ptr %83, i64 %85
  %87 = getelementptr inbounds nuw %struct.pollfd, ptr %86, i32 0, i32 0
  store i32 %82, ptr %87, align 4
  %88 = load ptr, ptr %7, align 8
  %89 = load i32, ptr %9, align 4
  %90 = zext i32 %89 to i64
  %91 = getelementptr inbounds nuw %struct.pollfd, ptr %88, i64 %90
  %92 = getelementptr inbounds nuw %struct.pollfd, ptr %91, i32 0, i32 1
  store i16 20, ptr %92, align 4
  %93 = load ptr, ptr %5, align 8
  %94 = load ptr, ptr %8, align 8
  %95 = load i32, ptr %9, align 4
  %96 = zext i32 %95 to i64
  %97 = getelementptr inbounds nuw ptr, ptr %94, i64 %96
  store ptr %93, ptr %97, align 8
  br label %98

98:                                               ; preds = %79, %76
  br label %99

99:                                               ; preds = %98, %57
  br label %100

100:                                              ; preds = %99, %35
  %101 = load i8, ptr %11, align 1, !range !10, !noundef !11
  %102 = trunc i8 %101 to i1
  br i1 %102, label %106, label %103

103:                                              ; preds = %100
  %104 = load i8, ptr %10, align 1, !range !10, !noundef !11
  %105 = trunc i8 %104 to i1
  br i1 %105, label %106, label %112

106:                                              ; preds = %103, %100
  %107 = load ptr, ptr %6, align 8
  %108 = getelementptr inbounds nuw %struct.foreach_pollfd_t, ptr %107, i32 0, i32 1
  %109 = load ptr, ptr %108, align 8
  %110 = load i32, ptr %109, align 4
  %111 = add i32 %110, 1
  store i32 %111, ptr %109, align 4
  br label %112

112:                                              ; preds = %106, %103
  call void @llvm.lifetime.end.p0(i64 1, ptr %11) #7
  call void @llvm.lifetime.end.p0(i64 1, ptr %10) #7
  call void @llvm.lifetime.end.p0(i64 4, ptr %9) #7
  call void @llvm.lifetime.end.p0(i64 8, ptr %8) #7
  call void @llvm.lifetime.end.p0(i64 8, ptr %7) #7
  call void @llvm.lifetime.end.p0(i64 8, ptr %6) #7
  call void @llvm.lifetime.end.p0(i64 8, ptr %5) #7
  ret i32 0
}