; Function Attrs: nounwind uwtable
define internal noundef i32 @_foreach_helper_setup_pollfds(ptr noundef %0, ptr noundef readonly captures(none) %1) #0 {
  %3 = getelementptr inbounds nuw i8, ptr %1, i64 16
  %4 = load ptr, ptr %3, align 8
  %5 = load ptr, ptr %1, align 8
  %6 = getelementptr inbounds nuw i8, ptr %1, i64 8
  %7 = load ptr, ptr %6, align 8
  %8 = load i32, ptr %7, align 4
  %9 = getelementptr inbounds nuw i8, ptr %0, i64 16
  %10 = load ptr, ptr %9, align 8
  %11 = getelementptr inbounds nuw i8, ptr %10, i64 8
  %12 = load ptr, ptr %11, align 8
  %.not.i = icmp eq ptr %12, null
  br i1 %.not.i, label %_is_writable.exit, label %13

13:                                               ; preds = %2
  %14 = tail call zeroext i1 %12(ptr noundef nonnull %0) #10
  %.pre = load ptr, ptr %9, align 8
  br label %_is_writable.exit

_is_writable.exit:                                ; preds = %2, %13
  %15 = phi ptr [ %10, %2 ], [ %.pre, %13 ]
  %16 = phi i1 [ false, %2 ], [ %14, %13 ]
  %17 = load ptr, ptr %15, align 8
  %.not.i39 = icmp eq ptr %17, null
  br i1 %.not.i39, label %.thread, label %_is_readable.exit

_is_readable.exit:                                ; preds = %_is_writable.exit
  %18 = tail call zeroext i1 %17(ptr noundef nonnull %0) #10
  %.mux = select i1 %16, i16 8213, i16 8193
  %brmerge51 = or i1 %18, %16
  %.mux.mux = select i1 %18, i16 %.mux, i16 20
  br i1 %brmerge51, label %.thread43, label %.critedge

.thread:                                          ; preds = %_is_writable.exit
  br i1 %16, label %.thread43, label %.critedge

.thread43:                                        ; preds = %_is_readable.exit, %.thread
  %.sink = phi i16 [ 20, %.thread ], [ %.mux.mux, %_is_readable.exit ]
  %19 = load i32, ptr %0, align 8
  %20 = zext i32 %8 to i64
  %21 = getelementptr inbounds nuw %struct.pollfd, ptr %4, i64 %20
  store i32 %19, ptr %21, align 4
  %22 = getelementptr inbounds nuw i8, ptr %21, i64 4
  store i16 %.sink, ptr %22, align 4
  %23 = getelementptr inbounds nuw ptr, ptr %5, i64 %20
  store ptr %0, ptr %23, align 8
  %24 = load ptr, ptr %6, align 8
  %25 = load i32, ptr %24, align 4
  %26 = add i32 %25, 1
  store i32 %26, ptr %24, align 4
  br label %.critedge

.critedge:                                        ; preds = %_is_readable.exit, %.thread, %.thread43
  ret i32 0
}